; Function Attrs: nounwind uwtable
define dso_local i32 @PyModule_AddStringConstant(ptr noundef %0, ptr noundef %1, ptr noundef %2) local_unnamed_addr #0 {
  %4 = tail call ptr @PyUnicode_FromString(ptr noundef %2) #7
  %5 = tail call i32 @PyModule_AddObjectRef(ptr noundef %0, ptr noundef %1, ptr noundef %4)
  %.not.i.i = icmp eq ptr %4, null
  br i1 %.not.i.i, label %PyModule_Add.exit, label %6

6:                                                ; preds = %3
  %7 = load i32, ptr %4, align 8, !tbaa !29
  %.not.i.i.i = icmp sgt i32 %7, -1
  br i1 %.not.i.i.i, label %8, label %PyModule_Add.exit

8:                                                ; preds = %6
  %9 = add nsw i32 %7, -1
  store i32 %9, ptr %4, align 8, !tbaa !29
  %10 = icmp eq i32 %9, 0
  br i1 %10, label %11, label %PyModule_Add.exit

11:                                               ; preds = %8
  tail call void @_Py_Dealloc(ptr noundef nonnull %4) #7
  br label %PyModule_Add.exit

PyModule_Add.exit:                                ; preds = %3, %6, %8, %11
  ret i32 %5
}